target datalayout = "e-m:e-p270:32:32-p271:32:32-p272:64:64-i64:64-i128:128-f80:128-n8:16:32:64-S128"
target triple = "x86_64-pc-linux-gnu"

%struct.expert_field = type { i32, i32 }

@hf_ldp_tlv_returned_msg_ubit = internal global i32 0, align 4
@hf_ldp_tlv_returned_msg_type = internal global i32 0, align 4
@hf_ldp_tlv_returned_msg_len = internal global i32 0, align 4
@hf_ldp_tlv_returned_msg_id = internal global i32 0, align 4
@hf_ldp_returned_message_parameters = internal global i32 0, align 4
@ett_ldp_tlv_val = internal global i32 0, align 4
@ei_ldp_tlv_fec_len = internal global %struct.expert_field zeroinitializer, align 4
@.str.697 = private unnamed_addr constant [17 x i8] c"Returned Message\00", align 1
@.str.826 = private unnamed_addr constant [21 x i8] c"Unknown Message Type\00", align 1
@.str.993 = private unnamed_addr constant [24 x i8] c"Message Type: %s (0x%X)\00", align 1
@.str.1045 = private unnamed_addr constant [68 x i8] c"Error processing Returned Message TLV: length is %d, should be >= 4\00", align 1
@.str.1046 = private unnamed_addr constant [36 x i8] c"Message Type: Vendor Private (0x%X)\00", align 1
@.str.1047 = private unnamed_addr constant [34 x i8] c"Message Type: Experimental (0x%X)\00", align 1

; Function Attrs: null_pointer_is_valid sspstrong uwtable
define internal void @dissect_tlv_returned_message(ptr noundef %0, ptr noundef %1, i32 noundef %2, ptr noundef %3, i32 noundef %4) #0 {
  %6 = alloca ptr, align 8
  %7 = alloca ptr, align 8
  %8 = alloca i32, align 4
  %9 = alloca ptr, align 8
  %10 = alloca i32, align 4
  %11 = alloca ptr, align 8
  %12 = alloca i16, align 2
  %13 = alloca i32, align 4
  store ptr %0, ptr %6, align 8
  store ptr %1, ptr %7, align 8
  store i32 %2, ptr %8, align 4
  store ptr %3, ptr %9, align 8
  store i32 %4, ptr %10, align 4
  call void @llvm.lifetime.start.p0(i64 8, ptr %11) #7
  call void @llvm.lifetime.start.p0(i64 2, ptr %12) #7
  %14 = load i32, ptr %10, align 4
  %15 = icmp slt i32 %14, 4
  br i1 %15, label %16, label %24

16:                                               ; preds = %5
  %17 = load ptr, ptr %9, align 8
  %18 = load ptr, ptr %7, align 8
  %19 = load ptr, ptr %6, align 8
  %20 = load i32, ptr %8, align 4
  %21 = load i32, ptr %10, align 4
  %22 = load i32, ptr %10, align 4
  %23 = call ptr (ptr, ptr, ptr, ptr, i32, i32, ptr, ...) @proto_tree_add_expert_format(ptr noundef %17, ptr noundef %18, ptr noundef @ei_ldp_tlv_fec_len, ptr noundef %19, i32 noundef %20, i32 noundef %21, ptr noundef @.str.1045, i32 noundef %22)
  store i32 1, ptr %13, align 4
  br label %125

24:                                               ; preds = %5
  %25 = load ptr, ptr %9, align 8
  %26 = load ptr, ptr %6, align 8
  %27 = load i32, ptr %8, align 4
  %28 = load i32, ptr %10, align 4
  %29 = load i32, ptr @ett_ldp_tlv_val, align 4
  %30 = call ptr @proto_tree_add_subtree(ptr noundef %25, ptr noundef %26, i32 noundef %27, i32 noundef %28, i32 noundef %29, ptr noundef null, ptr noundef @.str.697)
  store ptr %30, ptr %11, align 8
  %31 = load ptr, ptr %11, align 8
  %32 = load i32, ptr @hf_ldp_tlv_returned_msg_ubit, align 4
  %33 = load ptr, ptr %6, align 8
  %34 = load i32, ptr %8, align 4
  %35 = call ptr @proto_tree_add_item(ptr noundef %31, i32 noundef %32, ptr noundef %33, i32 noundef %34, i32 noundef 1, i32 noundef 0)
  %36 = load ptr, ptr %6, align 8
  %37 = load i32, ptr %8, align 4
  %38 = call zeroext i16 @tvb_get_ntohs(ptr noundef %36, i32 noundef %37)
  %39 = zext i16 %38 to i32
  %40 = and i32 %39, 32767
  %41 = trunc i32 %40 to i16
  store i16 %41, ptr %12, align 2
  %42 = load i16, ptr %12, align 2
  %43 = zext i16 %42 to i32
  %44 = icmp sge i32 %43, 15872
  br i1 %44, label %45, label %59

45:                                               ; preds = %24
  %46 = load i16, ptr %12, align 2
  %47 = zext i16 %46 to i32
  %48 = icmp sle i32 %47, 16127
  br i1 %48, label %49, label %59

49:                                               ; preds = %45
  %50 = load ptr, ptr %11, align 8
  %51 = load i32, ptr @hf_ldp_tlv_returned_msg_type, align 4
  %52 = load ptr, ptr %6, align 8
  %53 = load i32, ptr %8, align 4
  %54 = load i16, ptr %12, align 2
  %55 = zext i16 %54 to i32
  %56 = load i16, ptr %12, align 2
  %57 = zext i16 %56 to i32
  %58 = call ptr (ptr, i32, ptr, i32, i32, i32, ptr, ...) @proto_tree_add_uint_format(ptr noundef %50, i32 noundef %51, ptr noundef %52, i32 noundef %53, i32 noundef 2, i32 noundef %55, ptr noundef @.str.1046, i32 noundef %57)
  br label %91

59:                                               ; preds = %45, %24
  %60 = load i16, ptr %12, align 2
  %61 = zext i16 %60 to i32
  %62 = icmp sge i32 %61, 16128
  br i1 %62, label %63, label %77

63:                                               ; preds = %59
  %64 = load i16, ptr %12, align 2
  %65 = zext i16 %64 to i32
  %66 = icmp sle i32 %65, 16383
  br i1 %66, label %67, label %77

67:                                               ; preds = %63
  %68 = load ptr, ptr %11, align 8
  %69 = load i32, ptr @hf_ldp_tlv_returned_msg_type, align 4
  %70 = load ptr, ptr %6, align 8
  %71 = load i32, ptr %8, align 4
  %72 = load i16, ptr %12, align 2
  %73 = zext i16 %72 to i32
  %74 = load i16, ptr %12, align 2
  %75 = zext i16 %74 to i32
  %76 = call ptr (ptr, i32, ptr, i32, i32, i32, ptr, ...) @proto_tree_add_uint_format(ptr noundef %68, i32 noundef %69, ptr noundef %70, i32 noundef %71, i32 noundef 2, i32 noundef %73, ptr noundef @.str.1047, i32 noundef %75)
  br label %90

77:                                               ; preds = %63, %59
  %78 = load ptr, ptr %11, align 8
  %79 = load i32, ptr @hf_ldp_tlv_returned_msg_type, align 4
  %80 = load ptr, ptr %6, align 8
  %81 = load i32, ptr %8, align 4
  %82 = load i16, ptr %12, align 2
  %83 = zext i16 %82 to i32
  %84 = load i16, ptr %12, align 2
  %85 = zext i16 %84 to i32
  %86 = call ptr @val_to_str_const(i32 noundef %85, ptr noundef @ldp_message_types, ptr noundef @.str.826)
  %87 = load i16, ptr %12, align 2
  %88 = zext i16 %87 to i32
  %89 = call ptr (ptr, i32, ptr, i32, i32, i32, ptr, ...) @proto_tree_add_uint_format(ptr noundef %78, i32 noundef %79, ptr noundef %80, i32 noundef %81, i32 noundef 2, i32 noundef %83, ptr noundef @.str.993, ptr noundef %86, i32 noundef %88)
  br label %90

90:                                               ; preds = %77, %67
  br label %91

91:                                               ; preds = %90, %49
  %92 = load ptr, ptr %11, align 8
  %93 = load i32, ptr @hf_ldp_tlv_returned_msg_len, align 4
  %94 = load ptr, ptr %6, align 8
  %95 = load i32, ptr %8, align 4
  %96 = add i32 %95, 2
  %97 = call ptr @proto_tree_add_item(ptr noundef %92, i32 noundef %93, ptr noundef %94, i32 noundef %96, i32 noundef 2, i32 noundef 0)
  %98 = load i32, ptr %8, align 4
  %99 = add i32 %98, 4
  store i32 %99, ptr %8, align 4
  %100 = load i32, ptr %10, align 4
  %101 = sub i32 %100, 4
  store i32 %101, ptr %10, align 4
  %102 = load i32, ptr %10, align 4
  %103 = icmp sge i32 %102, 4
  br i1 %103, label %104, label %114

104:                                              ; preds = %91
  %105 = load ptr, ptr %11, align 8
  %106 = load i32, ptr @hf_ldp_tlv_returned_msg_id, align 4
  %107 = load ptr, ptr %6, align 8
  %108 = load i32, ptr %8, align 4
  %109 = call ptr @proto_tree_add_item(ptr noundef %105, i32 noundef %106, ptr noundef %107, i32 noundef %108, i32 noundef 4, i32 noundef 0)
  %110 = load i32, ptr %8, align 4
  %111 = add i32 %110, 4
  store i32 %111, ptr %8, align 4
  %112 = load i32, ptr %10, align 4
  %113 = sub i32 %112, 4
  store i32 %113, ptr %10, align 4
  br label %114

114:                                              ; preds = %104, %91
  %115 = load i32, ptr %10, align 4
  %116 = icmp sgt i32 %115, 0
  br i1 %116, label %117, label %124

117:                                              ; preds = %114
  %118 = load ptr, ptr %11, align 8
  %119 = load i32, ptr @hf_ldp_returned_message_parameters, align 4
  %120 = load ptr, ptr %6, align 8
  %121 = load i32, ptr %8, align 4
  %122 = load i32, ptr %10, align 4
  %123 = call ptr @proto_tree_add_item(ptr noundef %118, i32 noundef %119, ptr noundef %120, i32 noundef %121, i32 noundef %122, i32 noundef 0)
  br label %124

124:                                              ; preds = %117, %114
  store i32 0, ptr %13, align 4
  br label %125

125:                                              ; preds = %124, %16
  call void @llvm.lifetime.end.p0(i64 2, ptr %12) #7
  call void @llvm.lifetime.end.p0(i64 8, ptr %11) #7
  %126 = load i32, ptr %13, align 4
  switch i32 %126, label %128 [
    i32 0, label %127
    i32 1, label %127
  ]

127:                                              ; preds = %125, %125
  ret void

128:                                              ; preds = %125
  unreachable
}