; Function Attrs: null_pointer_is_valid sspstrong uwtable
define internal fastcc void @dissect_tlv_returned_message(ptr noundef %0, ptr noundef %1, i32 noundef %2, ptr noundef %3, i32 noundef range(i32 0, 2147483644) %4) unnamed_addr #0 {
  %6 = icmp samesign ult i32 %4, 4
  br i1 %6, label %7, label %9

7:                                                ; preds = %5
  %8 = tail call ptr (ptr, ptr, ptr, ptr, i32, i32, ptr, ...) @proto_tree_add_expert_format(ptr noundef %3, ptr noundef %1, ptr noundef nonnull @ei_ldp_tlv_fec_len, ptr noundef %0, i32 noundef %2, i32 noundef %4, ptr noundef nonnull @.str.1045, i32 noundef %4)
  br label %42

9:                                                ; preds = %5
  %10 = load i32, ptr @ett_ldp_tlv_val, align 4
  %11 = tail call ptr @proto_tree_add_subtree(ptr noundef %3, ptr noundef %0, i32 noundef %2, i32 noundef %4, i32 noundef %10, ptr noundef null, ptr noundef nonnull @.str.697)
  %12 = load i32, ptr @hf_ldp_tlv_returned_msg_ubit, align 4
  %13 = tail call ptr @proto_tree_add_item(ptr noundef %11, i32 noundef %12, ptr noundef %0, i32 noundef %2, i32 noundef 1, i32 noundef 0)
  %14 = tail call zeroext i16 @tvb_get_ntohs(ptr noundef %0, i32 noundef %2)
  %15 = and i16 %14, 32767
  %16 = zext nneg i16 %15 to i32
  %17 = and i16 %14, 32512
  %18 = load i32, ptr @hf_ldp_tlv_returned_msg_type, align 4
  switch i16 %17, label %23 [
    i16 15872, label %19
    i16 16128, label %21
  ]

19:                                               ; preds = %9
  %20 = tail call ptr (ptr, i32, ptr, i32, i32, i32, ptr, ...) @proto_tree_add_uint_format(ptr noundef %11, i32 noundef %18, ptr noundef %0, i32 noundef %2, i32 noundef 2, i32 noundef %16, ptr noundef nonnull @.str.1046, i32 noundef %16)
  br label %26

21:                                               ; preds = %9
  %22 = tail call ptr (ptr, i32, ptr, i32, i32, i32, ptr, ...) @proto_tree_add_uint_format(ptr noundef %11, i32 noundef %18, ptr noundef %0, i32 noundef %2, i32 noundef 2, i32 noundef %16, ptr noundef nonnull @.str.1047, i32 noundef %16)
  br label %26

23:                                               ; preds = %9
  %24 = tail call ptr @val_to_str_const(i32 noundef %16, ptr noundef nonnull @ldp_message_types, ptr noundef nonnull @.str.826)
  %25 = tail call ptr (ptr, i32, ptr, i32, i32, i32, ptr, ...) @proto_tree_add_uint_format(ptr noundef %11, i32 noundef %18, ptr noundef %0, i32 noundef %2, i32 noundef 2, i32 noundef %16, ptr noundef nonnull @.str.993, ptr noundef %24, i32 noundef %16)
  br label %26

26:                                               ; preds = %21, %23, %19
  %27 = load i32, ptr @hf_ldp_tlv_returned_msg_len, align 4
  %28 = add i32 %2, 2
  %29 = tail call ptr @proto_tree_add_item(ptr noundef %11, i32 noundef %27, ptr noundef %0, i32 noundef %28, i32 noundef 2, i32 noundef 0)
  %30 = add i32 %2, 4
  %31 = add nsw i32 %4, -4
  %32 = icmp samesign ugt i32 %4, 7
  br i1 %32, label %33, label %38

33:                                               ; preds = %26
  %34 = load i32, ptr @hf_ldp_tlv_returned_msg_id, align 4
  %35 = tail call ptr @proto_tree_add_item(ptr noundef %11, i32 noundef %34, ptr noundef %0, i32 noundef %30, i32 noundef 4, i32 noundef 0)
  %36 = add i32 %2, 8
  %37 = add nsw i32 %4, -8
  br label %38

38:                                               ; preds = %33, %26
  %.056 = phi i32 [ %37, %33 ], [ %31, %26 ]
  %.0 = phi i32 [ %36, %33 ], [ %30, %26 ]
  %.not = icmp eq i32 %.056, 0
  br i1 %.not, label %42, label %39

39:                                               ; preds = %38
  %40 = load i32, ptr @hf_ldp_returned_message_parameters, align 4
  %41 = tail call ptr @proto_tree_add_item(ptr noundef %11, i32 noundef %40, ptr noundef %0, i32 noundef %.0, i32 noundef %.056, i32 noundef 0)
  br label %42

42:                                               ; preds = %38, %39, %7
  ret void
}